(dp1
S'rbtn'
p2
(I01
I00
tp3
sS'e'
(S'alex.mongohq.com'
S'10023'
S''
S''
S'User Password'
tp4
sS'cbtn'
p5
(I00
I01
tp6
sS'fbtn'
p7
(tsS'clbtn'
p8
(tsS'fcbtn'
p9
(S'/home/wolfi/Arbeitsfl\xc3\xa4che'
tp10
s.(dp1
S'rbtn'
p2
(I00
I01
tp3
sS'e'
(tsS'cbtn'
p4
(I00
tp5
sS'fbtn'
p6
(tsS'clbtn'
p7
(tsS'fcbtn'
p8
(ts.(dp1
S'rbtn'
p2
(I00
I01
I00
tp3
sS'e'
(tsS'cbtn'
p4
(tsS'fbtn'
p5
(tsS'clbtn'
p6
(tsS'fcbtn'
p7
(ts.(dp1
S'rbtn'
p2
(I01
I00
I00
I01
I00
tp3
sS'e'
(tsS'cbtn'
p4
(I01
I01
tp5
sS'fbtn'
p6
(S'Cantarell 12'
tp7
sS'clbtn'
p8
(S'#e9e9b9b96e6e'
S'#5c5c35356666'
S'#fffff86ebe4a'
S'#1d4d0e9b3777'
tp9
sS'fcbtn'
p10
(ts.